Certificate:
    Data:
        Version: 3 (0x2)
        Serial Number: 268435668 (0x100000d4)
        Signature Algorithm: sha256WithRSAEncryption
        Issuer: C=DE, ST=Hessen, O=privacyidea, CN=CA001
        Validity
            Not Before: Sep  7 18:05:53 2020 GMT
            Not After : Sep  7 18:05:53 2021 GMT
        Subject: CN=selfservice,CN=user,O=realm1/emailAddress=meine
        Subject Public Key Info:
            Public Key Algorithm: rsaEncryption
                RSA Public-Key: (2048 bit)
                Modulus:
                    00:cf:3c:d4:33:0e:12:c4:e6:da:cd:b6:56:a1:1c:
                    26:bb:26:1c:8a:4a:73:a8:58:8a:b6:1e:b3:8b:99:
                    d2:1d:07:c2:92:89:79:c0:69:d8:c8:df:28:61:98:
                    1e:b3:fe:ae:2b:bd:78:a9:f7:6e:47:dc:a3:a0:16:
                    8c:85:02:c1:4e:92:fd:72:6e:f0:c8:03:29:9b:b8:
                    00:6e:c0:83:95:c8:34:20:36:9c:b3:e5:e4:e6:76:
                    73:a3:1a:ad:40:96:e0:53:54:00:ec:76:79:9a:c6:
                    0d:7e:b6:bd:29:ec:83:f3:cb:89:a4:cb:6c:00:ba:
                    0c:c5:78:0f:ff:69:b8:94:f4:04:70:43:3f:d8:9e:
                    d7:a7:fb:5d:ce:75:8e:da:e7:c4:07:b1:9d:de:6f:
                    88:4b:b6:4d:9a:cf:f9:bc:fa:9f:cd:32:6d:f6:3a:
                    0b:0d:23:42:78:ec:97:42:bf:0e:4d:60:56:e1:d3:
                    02:f2:19:cb:84:57:90:e5:70:a1:a2:83:35:86:e2:
                    da:86:9f:f9:8a:c4:79:b3:52:28:da:cb:bb:34:ca:
                    d3:da:91:4a:cf:8d:76:a2:b2:6b:9b:f9:96:fd:09:
                    2a:da:11:23:4d:f0:cb:d6:b2:b1:0e:12:6c:9a:19:
                    65:98:87:ca:e4:ee:24:ce:44:ac:90:8f:9d:1b:c5:
                    2a:9d
                Exponent: 65537 (0x10001)
        X509v3 extensions:
            X509v3 Key Usage: 
                Digital Signature, Key Encipherment
            X509v3 Basic Constraints: 
                CA:FALSE
            Netscape Cert Type: 
                SSL Server
            Netscape Comment: 
                OpenSSL Generated Server Certificate
            X509v3 Subject Key Identifier: 
                4D:07:90:AD:FF:1D:0D:E7:1A:DD:D6:2E:FA:BA:34:CB:AA:1F:24:C6
            X509v3 Authority Key Identifier: 
                keyid:F4:A7:C0:CC:91:46:AF:64:F3:91:F2:27:F8:C8:B2:6F:8A:87:32:73
                DirName:/C=DE/ST=Hessen/O=privacyidea/CN=CA001
                serial:FB:C8:EB:AC:83:CD:12:07

            X509v3 Extended Key Usage: 
                TLS Web Server Authentication
    Signature Algorithm: sha256WithRSAEncryption
         2c:95:2d:72:02:23:a2:e0:de:70:b0:6e:0f:f8:7b:2b:86:55:
         b1:01:af:46:39:e7:f1:fd:89:c7:9b:fb:0a:78:0e:30:2b:d4:
         79:61:05:c2:ea:ca:9b:96:44:eb:59:bd:f2:8c:72:92:61:39:
         62:ea:66:db:88:5b:23:da:90:fd:43:2c:87:6e:5c:83:6d:d5:
         4f:cc:8f:e6:49:bb:c0:03:3f:b6:0b:be:b5:18:d2:17:98:42:
         5d:c2:12:81:8f:6e:21:38:79:27:e9:1b:19:ab:79:98:c4:0d:
         73:17:16:57:60:af:a4:41:38:48:cd:8c:4f:51:bf:4b:e0:ac:
         bb:b8:42:e3:b6:53:3e:04:be:08:3e:1c:88:99:47:4b:b2:68:
         2d:ee:32:d4:3e:71:bb:36:0d:8e:5c:25:97:24:53:27:36:77:
         ce:5e:77:d9:f8:4a:58:08:8a:30:f1:88:a4:e4:bc:40:7f:53:
         f4:41:08:00:5e:ff:85:85:5d:31:fb:ad:cf:4c:55:d0:6f:62:
         da:34:de:7f:16:d6:5a:6d:11:0a:c4:9c:a0:1b:01:25:23:68:
         7e:3c:bf:8c:7d:c4:15:0e:83:d2:4c:60:43:bf:94:ad:23:ba:
         dc:29:fe:27:4b:49:4a:6a:b5:dd:0c:f4:ea:f9:a9:15:d4:cc:
         d8:2f:c8:f8
-----BEGIN CERTIFICATE-----
MIIEDzCCAvegAwIBAgIEEAAA1DANBgkqhkiG9w0BAQsFADBEMQswCQYDVQQGEwJE
RTEPMA0GA1UECAwGSGVzc2VuMRQwEgYDVQQKDAtwcml2YWN5aWRlYTEOMAwGA1UE
AwwFQ0EwMDEwHhcNMjAwOTA3MTgwNTUzWhcNMjEwOTA3MTgwNTUzWjA9MSUwIwYD
VQQDDBxzZWxmc2VydmljZSxDTj11c2VyLE89cmVhbG0xMRQwEgYJKoZIhvcNAQkB
FgVtZWluZTCCASIwDQYJKoZIhvcNAQEBBQADggEPADCCAQoCggEBAM881DMOEsTm
2s22VqEcJrsmHIpKc6hYirYes4uZ0h0HwpKJecBp2MjfKGGYHrP+riu9eKn3bkfc
o6AWjIUCwU6S/XJu8MgDKZu4AG7Ag5XINCA2nLPl5OZ2c6MarUCW4FNUAOx2eZrG
DX62vSnsg/PLiaTLbAC6DMV4D/9puJT0BHBDP9ie16f7Xc51jtrnxAexnd5viEu2
TZrP+bz6n80ybfY6Cw0jQnjsl0K/Dk1gVuHTAvIZy4RXkOVwoaKDNYbi2oaf+YrE
ebNSKNrLuzTK09qRSs+NdqKya5v5lv0JKtoRI03wy9aysQ4SbJoZZZiHyuTuJM5E
rJCPnRvFKp0CAwEAAaOCAQ4wggEKMAsGA1UdDwQEAwIFoDAJBgNVHRMEAjAAMBEG
CWCGSAGG+EIBAQQEAwIGQDAzBglghkgBhvhCAQ0EJhYkT3BlblNTTCBHZW5lcmF0
ZWQgU2VydmVyIENlcnRpZmljYXRlMB0GA1UdDgQWBBRNB5Ct/x0N5xrd1i76ujTL
qh8kxjB0BgNVHSMEbTBrgBT0p8DMkUavZPOR8if4yLJviocyc6FIpEYwRDELMAkG
A1UEBhMCREUxDzANBgNVBAgMBkhlc3NlbjEUMBIGA1UECgwLcHJpdmFjeWlkZWEx
DjAMBgNVBAMMBUNBMDAxggkA+8jrrIPNEgcwEwYDVR0lBAwwCgYIKwYBBQUHAwEw
DQYJKoZIhvcNAQELBQADggEBACyVLXICI6Lg3nCwbg/4eyuGVbEBr0Y55/H9iceb
+wp4DjAr1HlhBcLqypuWROtZvfKMcpJhOWLqZtuIWyPakP1DLIduXINt1U/Mj+ZJ
u8ADP7YLvrUY0heYQl3CEoGPbiE4eSfpGxmreZjEDXMXFldgr6RBOEjNjE9Rv0vg
rLu4QuO2Uz4Evgg+HIiZR0uyaC3uMtQ+cbs2DY5cJZckUyc2d85ed9n4SlgIijDx
iKTkvEB/U/RBCABe/4WFXTH7rc9MVdBvYto03n8W1lptEQrEnKAbASUjaH48v4x9
xBUOg9JMYEO/lK0jutwp/idLSUpqtd0M9Or5qRXUzNgvyPg=
-----END CERTIFICATE-----
