Certificate:
    Data:
        Version: 3 (0x2)
        Serial Number: 268435667 (0x100000d3)
        Signature Algorithm: sha256WithRSAEncryption
        Issuer: C=DE, ST=Hessen, O=privacyidea, CN=CA001
        Validity
            Not Before: Sep  7 18:04:18 2020 GMT
            Not After : Sep  7 18:04:18 2021 GMT
        Subject: OU=realm1, CN=cornelius/emailAddress=user@localhost.localdomain
        Subject Public Key Info:
            Public Key Algorithm: rsaEncryption
                RSA Public-Key: (2048 bit)
                Modulus:
                    00:99:1b:ad:63:b8:82:2a:fa:8f:42:e6:d7:12:67:
                    50:be:f0:ae:df:c5:a5:cf:13:1f:64:ec:4e:9b:fb:
                    24:44:31:6e:fc:d3:77:cd:16:b0:17:e1:fc:ae:d9:
                    01:d4:22:08:ae:35:5e:cc:ce:ed:e3:57:2e:8e:87:
                    43:8d:5f:41:d0:b2:38:56:3f:6f:9a:48:21:83:72:
                    48:c7:8e:0d:33:7b:72:ba:e4:6f:88:a0:53:e3:07:
                    25:6e:09:a7:74:4d:ea:cf:2c:fe:54:91:ef:36:ea:
                    f0:73:83:eb:21:db:25:bb:1d:02:d7:03:91:91:0d:
                    c1:39:ed:00:4f:68:b0:08:9d:24:d7:92:0a:82:fb:
                    8d:de:73:53:1f:64:93:bd:49:fa:cf:a2:53:5c:e1:
                    82:de:c1:7d:fd:4d:6f:b1:62:43:25:b7:0b:e9:e3:
                    66:6f:5f:36:73:a4:cd:94:b3:58:ae:72:0d:16:8e:
                    33:a4:56:12:3f:4c:1c:a3:c9:33:35:5a:db:95:00:
                    7c:7b:75:ef:d4:86:82:ae:a8:b1:15:bd:b4:04:fc:
                    70:cf:b1:43:bc:90:e1:33:d0:76:69:c4:f2:54:53:
                    be:7a:d6:21:a3:ee:50:ed:f5:a8:55:6d:c3:bd:a7:
                    9a:60:89:2a:0f:e2:96:65:af:dd:b2:6e:6d:ec:9b:
                    62:71
                Exponent: 65537 (0x10001)
        X509v3 extensions:
            X509v3 Key Usage: 
                Digital Signature, Key Encipherment
            X509v3 Basic Constraints: 
                CA:FALSE
            Netscape Cert Type: 
                SSL Server
            Netscape Comment: 
                OpenSSL Generated Server Certificate
            X509v3 Subject Key Identifier: 
                C9:16:15:EC:FA:AA:1F:0F:F7:FE:61:98:44:72:3F:67:AE:3A:E6:45
            X509v3 Authority Key Identifier: 
                keyid:F4:A7:C0:CC:91:46:AF:64:F3:91:F2:27:F8:C8:B2:6F:8A:87:32:73
                DirName:/C=DE/ST=Hessen/O=privacyidea/CN=CA001
                serial:FB:C8:EB:AC:83:CD:12:07

            X509v3 Extended Key Usage: 
                TLS Web Server Authentication
    Signature Algorithm: sha256WithRSAEncryption
         aa:36:a3:92:f8:09:e1:34:c9:be:59:59:5b:15:c7:5b:e8:92:
         38:e6:34:86:72:f4:48:59:a7:0d:26:90:4a:be:33:9f:97:b6:
         12:4a:3e:2b:fb:c4:85:da:2e:9d:e4:f8:95:88:ab:44:34:f6:
         45:d6:a1:12:bd:c0:ea:b0:98:5a:09:59:0c:2e:da:b1:5f:b2:
         35:76:a9:3b:f4:88:9b:18:3c:49:b5:d3:7c:f4:87:3f:46:bc:
         a6:2f:0a:da:16:3c:42:19:80:55:2c:ec:70:09:7b:66:f6:9c:
         a1:f8:e6:60:d1:b6:47:c1:b4:6d:2c:75:2c:95:4d:1a:fd:5d:
         f5:89:da:16:e3:00:68:ed:39:3d:3f:5a:27:7b:d7:ad:dd:e0:
         95:8e:61:0b:f4:be:cb:d4:39:f3:fe:b9:2b:ce:3a:05:bc:d7:
         ac:c6:87:f3:ac:84:bd:a8:85:2f:8f:3a:99:f0:22:e3:14:56:
         95:52:f7:24:7c:73:d3:dc:cc:bb:fc:94:1e:1e:ca:69:c1:af:
         2c:0d:86:16:51:29:31:f2:6c:b8:23:9f:1a:37:2b:ce:f0:4e:
         f9:b7:c4:8c:2c:cc:5c:7c:ea:dd:fa:e2:92:f8:17:24:72:4a:
         aa:d3:e5:3b:7b:93:f0:56:b0:a8:15:3a:be:12:bc:74:9c:99:
         97:2d:c0:45
-----BEGIN CERTIFICATE-----
MIIEIjCCAwqgAwIBAgIEEAAA0zANBgkqhkiG9w0BAQsFADBEMQswCQYDVQQGEwJE
RTEPMA0GA1UECAwGSGVzc2VuMRQwEgYDVQQKDAtwcml2YWN5aWRlYTEOMAwGA1UE
AwwFQ0EwMDEwHhcNMjAwOTA3MTgwNDE4WhcNMjEwOTA3MTgwNDE4WjBQMQ8wDQYD
VQQLDAZyZWFsbTExEjAQBgNVBAMMCWNvcm5lbGl1czEpMCcGCSqGSIb3DQEJARYa
dXNlckBsb2NhbGhvc3QubG9jYWxkb21haW4wggEiMA0GCSqGSIb3DQEBAQUAA4IB
DwAwggEKAoIBAQCZG61juIIq+o9C5tcSZ1C+8K7fxaXPEx9k7E6b+yREMW7803fN
FrAX4fyu2QHUIgiuNV7Mzu3jVy6Oh0ONX0HQsjhWP2+aSCGDckjHjg0ze3K65G+I
oFPjByVuCad0TerPLP5Uke826vBzg+sh2yW7HQLXA5GRDcE57QBPaLAInSTXkgqC
+43ec1MfZJO9SfrPolNc4YLewX39TW+xYkMltwvp42ZvXzZzpM2Us1iucg0WjjOk
VhI/TByjyTM1WtuVAHx7de/UhoKuqLEVvbQE/HDPsUO8kOEz0HZpxPJUU7561iGj
7lDt9ahVbcO9p5pgiSoP4pZlr92ybm3sm2JxAgMBAAGjggEOMIIBCjALBgNVHQ8E
BAMCBaAwCQYDVR0TBAIwADARBglghkgBhvhCAQEEBAMCBkAwMwYJYIZIAYb4QgEN
BCYWJE9wZW5TU0wgR2VuZXJhdGVkIFNlcnZlciBDZXJ0aWZpY2F0ZTAdBgNVHQ4E
FgQUyRYV7PqqHw/3/mGYRHI/Z6465kUwdAYDVR0jBG0wa4AU9KfAzJFGr2TzkfIn
+Miyb4qHMnOhSKRGMEQxCzAJBgNVBAYTAkRFMQ8wDQYDVQQIDAZIZXNzZW4xFDAS
BgNVBAoMC3ByaXZhY3lpZGVhMQ4wDAYDVQQDDAVDQTAwMYIJAPvI66yDzRIHMBMG
A1UdJQQMMAoGCCsGAQUFBwMBMA0GCSqGSIb3DQEBCwUAA4IBAQCqNqOS+AnhNMm+
WVlbFcdb6JI45jSGcvRIWacNJpBKvjOfl7YSSj4r+8SF2i6d5PiViKtENPZF1qES
vcDqsJhaCVkMLtqxX7I1dqk79IibGDxJtdN89Ic/RrymLwraFjxCGYBVLOxwCXtm
9pyh+OZg0bZHwbRtLHUslU0a/V31idoW4wBo7Tk9P1one9et3eCVjmEL9L7L1Dnz
/rkrzjoFvNesxofzrIS9qIUvjzqZ8CLjFFaVUvckfHPT3My7/JQeHsppwa8sDYYW
USkx8my4I58aNyvO8E75t8SMLMxcfOrd+uKS+Bckckqq0+U7e5PwVrCoFTq+Erx0
nJmXLcBF
-----END CERTIFICATE-----
