Certificate:
    Data:
        Version: 3 (0x2)
        Serial Number: 268435666 (0x100000d2)
        Signature Algorithm: sha256WithRSAEncryption
        Issuer: C=DE, ST=Hessen, O=privacyidea, CN=CA001
        Validity
            Not Before: Sep  7 18:04:17 2020 GMT
            Not After : Sep  7 18:04:17 2021 GMT
        Subject: C=DE, ST=Hessen, O=privacyidea, CN=requester.localdomain
        Subject Public Key Info:
            Public Key Algorithm: rsaEncryption
                RSA Public-Key: (2048 bit)
                Modulus:
                    00:cd:be:14:4f:fa:ce:01:3f:42:22:1b:1d:9c:af:
                    dd:92:d2:7f:db:6c:b7:3e:39:43:43:6b:13:03:f1:
                    05:f4:07:74:bc:76:69:28:0b:af:19:8e:d7:fc:e3:
                    cd:c6:58:f2:ca:7f:08:6d:53:fc:07:02:44:24:c6:
                    b4:34:4c:8c:04:fe:33:0e:40:e2:20:ba:02:73:5a:
                    f7:f5:4f:63:6e:cc:c6:b6:df:54:1d:37:39:7d:51:
                    36:26:5f:bd:dc:3f:a8:8b:6b:a2:ae:b6:9d:d6:21:
                    e7:df:41:b8:7a:28:2a:68:48:ca:a8:2d:ed:e1:e9:
                    46:5e:5a:72:6d:b4:84:38:87:91:fd:94:11:0b:28:
                    84:c6:c2:2f:2a:fb:01:f9:36:7a:09:75:d1:33:88:
                    3c:73:41:5b:c8:bf:94:89:70:a1:f0:c0:b9:2e:50:
                    53:1e:b1:17:64:69:f4:2d:81:e0:a9:0d:0e:32:e9:
                    ba:55:8a:85:f1:1b:6f:49:79:b4:7f:88:c3:0d:3e:
                    54:88:9b:3d:1f:38:8c:04:f3:ee:6a:63:2b:f5:c6:
                    db:b4:83:aa:c4:78:41:3a:7d:4b:e1:c8:3e:71:ca:
                    1b:61:59:ea:c6:c4:ca:32:5e:c9:e9:bf:12:29:e6:
                    c6:c3:63:fe:a0:55:da:7a:f1:60:98:4d:26:ed:fa:
                    70:2d
                Exponent: 65537 (0x10001)
        X509v3 extensions:
            X509v3 Key Usage: 
                Digital Signature, Key Encipherment
            X509v3 Basic Constraints: 
                CA:FALSE
            Netscape Cert Type: 
                SSL Server
            Netscape Comment: 
                OpenSSL Generated Server Certificate
            X509v3 Subject Key Identifier: 
                53:3F:ED:5D:09:07:B3:65:7B:AB:45:C9:24:5B:09:77:80:0A:96:ED
            X509v3 Authority Key Identifier: 
                keyid:F4:A7:C0:CC:91:46:AF:64:F3:91:F2:27:F8:C8:B2:6F:8A:87:32:73
                DirName:/C=DE/ST=Hessen/O=privacyidea/CN=CA001
                serial:FB:C8:EB:AC:83:CD:12:07

            X509v3 Extended Key Usage: 
                TLS Web Server Authentication
    Signature Algorithm: sha256WithRSAEncryption
         a7:f6:14:38:ae:9e:fb:16:50:dc:21:c3:d2:da:93:bd:21:19:
         25:35:f3:50:10:14:83:2b:1e:b0:15:f7:e0:f2:82:f6:e2:ad:
         39:eb:af:3d:8a:6d:21:0f:42:a1:8e:df:00:fe:be:e1:14:56:
         55:ae:7f:13:8b:95:cd:ca:25:ac:41:88:20:59:b6:68:18:93:
         bc:98:96:42:5b:ec:64:e7:93:9b:31:3a:df:0c:fb:1f:3e:df:
         df:e8:5b:e3:e9:26:6b:77:5c:23:05:ba:c5:1d:f3:51:f9:c9:
         9b:94:69:38:bd:0e:49:32:5e:39:fe:07:1d:75:2a:e4:d6:ba:
         9c:4c:bf:d9:e0:ad:1a:59:00:d2:22:5c:2f:49:c1:fe:96:64:
         cd:4d:47:32:d8:df:a3:4d:bf:ee:da:6f:7f:2b:c0:9e:f6:a5:
         1c:a8:74:0b:27:92:4c:e9:8b:e1:0e:91:a4:2b:ab:f5:8b:b0:
         c3:b7:42:f2:25:60:4e:4b:f7:b8:f2:59:90:8f:af:43:44:6f:
         22:95:1b:54:26:66:33:82:5f:00:68:52:bd:2c:c4:89:57:77:
         0a:2e:97:d8:3e:7f:e4:22:9e:b7:62:f4:c4:b1:ce:2c:e2:d2:
         3b:fc:a3:3f:75:79:a5:28:82:d2:1f:d4:41:19:bc:fb:9d:4b:
         61:2f:af:b0
-----BEGIN CERTIFICATE-----
MIIEJjCCAw6gAwIBAgIEEAAA0jANBgkqhkiG9w0BAQsFADBEMQswCQYDVQQGEwJE
RTEPMA0GA1UECAwGSGVzc2VuMRQwEgYDVQQKDAtwcml2YWN5aWRlYTEOMAwGA1UE
AwwFQ0EwMDEwHhcNMjAwOTA3MTgwNDE3WhcNMjEwOTA3MTgwNDE3WjBUMQswCQYD
VQQGEwJERTEPMA0GA1UECAwGSGVzc2VuMRQwEgYDVQQKDAtwcml2YWN5aWRlYTEe
MBwGA1UEAwwVcmVxdWVzdGVyLmxvY2FsZG9tYWluMIIBIjANBgkqhkiG9w0BAQEF
AAOCAQ8AMIIBCgKCAQEAzb4UT/rOAT9CIhsdnK/dktJ/22y3PjlDQ2sTA/EF9Ad0
vHZpKAuvGY7X/OPNxljyyn8IbVP8BwJEJMa0NEyMBP4zDkDiILoCc1r39U9jbszG
tt9UHTc5fVE2Jl+93D+oi2uirrad1iHn30G4eigqaEjKqC3t4elGXlpybbSEOIeR
/ZQRCyiExsIvKvsB+TZ6CXXRM4g8c0FbyL+UiXCh8MC5LlBTHrEXZGn0LYHgqQ0O
Mum6VYqF8RtvSXm0f4jDDT5UiJs9HziMBPPuamMr9cbbtIOqxHhBOn1L4cg+ccob
YVnqxsTKMl7J6b8SKebGw2P+oFXaevFgmE0m7fpwLQIDAQABo4IBDjCCAQowCwYD
VR0PBAQDAgWgMAkGA1UdEwQCMAAwEQYJYIZIAYb4QgEBBAQDAgZAMDMGCWCGSAGG
+EIBDQQmFiRPcGVuU1NMIEdlbmVyYXRlZCBTZXJ2ZXIgQ2VydGlmaWNhdGUwHQYD
VR0OBBYEFFM/7V0JB7Nle6tFySRbCXeACpbtMHQGA1UdIwRtMGuAFPSnwMyRRq9k
85HyJ/jIsm+KhzJzoUikRjBEMQswCQYDVQQGEwJERTEPMA0GA1UECAwGSGVzc2Vu
MRQwEgYDVQQKDAtwcml2YWN5aWRlYTEOMAwGA1UEAwwFQ0EwMDGCCQD7yOusg80S
BzATBgNVHSUEDDAKBggrBgEFBQcDATANBgkqhkiG9w0BAQsFAAOCAQEAp/YUOK6e
+xZQ3CHD0tqTvSEZJTXzUBAUgysesBX34PKC9uKtOeuvPYptIQ9CoY7fAP6+4RRW
Va5/E4uVzcolrEGIIFm2aBiTvJiWQlvsZOeTmzE63wz7Hz7f3+hb4+kma3dcIwW6
xR3zUfnJm5RpOL0OSTJeOf4HHXUq5Na6nEy/2eCtGlkA0iJcL0nB/pZkzU1HMtjf
o02/7tpvfyvAnvalHKh0CyeSTOmL4Q6RpCur9Yuww7dC8iVgTkv3uPJZkI+vQ0Rv
IpUbVCZmM4JfAGhSvSzEiVd3Ci6X2D5/5CKet2L0xLHOLOLSO/yjP3V5pSiC0h/U
QRm8+51LYS+vsA==
-----END CERTIFICATE-----
