Certificate:
    Data:
        Version: 3 (0x2)
        Serial Number: 268435668 (0x100000d4)
        Signature Algorithm: sha256WithRSAEncryption
        Issuer: C=DE, ST=Hessen, O=privacyidea, CN=CA001
        Validity
            Not Before: Sep  3 20:59:59 2020 GMT
            Not After : Sep  3 20:59:59 2021 GMT
        Subject: CN=selfservice,CN=user,O=realm1/emailAddress=meine
        Subject Public Key Info:
            Public Key Algorithm: rsaEncryption
                RSA Public-Key: (2048 bit)
                Modulus:
                    00:cf:3c:d4:33:0e:12:c4:e6:da:cd:b6:56:a1:1c:
                    26:bb:26:1c:8a:4a:73:a8:58:8a:b6:1e:b3:8b:99:
                    d2:1d:07:c2:92:89:79:c0:69:d8:c8:df:28:61:98:
                    1e:b3:fe:ae:2b:bd:78:a9:f7:6e:47:dc:a3:a0:16:
                    8c:85:02:c1:4e:92:fd:72:6e:f0:c8:03:29:9b:b8:
                    00:6e:c0:83:95:c8:34:20:36:9c:b3:e5:e4:e6:76:
                    73:a3:1a:ad:40:96:e0:53:54:00:ec:76:79:9a:c6:
                    0d:7e:b6:bd:29:ec:83:f3:cb:89:a4:cb:6c:00:ba:
                    0c:c5:78:0f:ff:69:b8:94:f4:04:70:43:3f:d8:9e:
                    d7:a7:fb:5d:ce:75:8e:da:e7:c4:07:b1:9d:de:6f:
                    88:4b:b6:4d:9a:cf:f9:bc:fa:9f:cd:32:6d:f6:3a:
                    0b:0d:23:42:78:ec:97:42:bf:0e:4d:60:56:e1:d3:
                    02:f2:19:cb:84:57:90:e5:70:a1:a2:83:35:86:e2:
                    da:86:9f:f9:8a:c4:79:b3:52:28:da:cb:bb:34:ca:
                    d3:da:91:4a:cf:8d:76:a2:b2:6b:9b:f9:96:fd:09:
                    2a:da:11:23:4d:f0:cb:d6:b2:b1:0e:12:6c:9a:19:
                    65:98:87:ca:e4:ee:24:ce:44:ac:90:8f:9d:1b:c5:
                    2a:9d
                Exponent: 65537 (0x10001)
        X509v3 extensions:
            X509v3 Key Usage: 
                Digital Signature, Key Encipherment
            X509v3 Basic Constraints: 
                CA:FALSE
            Netscape Cert Type: 
                SSL Server
            Netscape Comment: 
                OpenSSL Generated Server Certificate
            X509v3 Subject Key Identifier: 
                4D:07:90:AD:FF:1D:0D:E7:1A:DD:D6:2E:FA:BA:34:CB:AA:1F:24:C6
            X509v3 Authority Key Identifier: 
                keyid:F4:A7:C0:CC:91:46:AF:64:F3:91:F2:27:F8:C8:B2:6F:8A:87:32:73
                DirName:/C=DE/ST=Hessen/O=privacyidea/CN=CA001
                serial:FB:C8:EB:AC:83:CD:12:07

            X509v3 Extended Key Usage: 
                TLS Web Server Authentication
    Signature Algorithm: sha256WithRSAEncryption
         91:81:8b:67:cd:a7:97:18:11:ee:b4:fe:b7:9a:12:1c:e8:42:
         e3:f3:43:f8:cf:3a:f8:96:0c:9a:01:bc:88:8c:93:9d:f5:7a:
         2a:5e:8d:e2:67:10:2e:2b:5c:e6:d1:9e:cc:5f:51:1e:4d:6f:
         15:e8:02:82:80:bc:f6:30:b6:fa:89:25:36:84:c8:86:f6:1c:
         f5:77:a5:6f:d9:6c:f9:8f:40:94:ba:20:5a:37:a3:40:63:b8:
         e5:a7:f2:12:df:88:95:30:7f:64:05:a3:95:62:68:40:93:c8:
         bb:56:4e:fd:49:86:12:4e:7d:84:d0:ca:3f:c2:8f:58:5c:51:
         1f:0b:47:88:97:dd:cf:41:21:88:79:b7:e1:d4:f2:a8:91:fa:
         87:be:95:46:a7:3a:2b:07:f3:54:5f:6c:a5:50:52:ed:b6:b5:
         38:3c:62:51:36:42:fd:0a:cc:28:fc:65:2e:b2:18:44:80:c6:
         95:0a:79:82:7d:79:24:2d:b0:88:04:c1:a7:ec:2f:4b:3f:94:
         d7:ce:de:ca:2f:2f:90:6e:b6:1a:17:7e:ee:29:6d:60:b4:0b:
         0f:18:a9:39:e4:f4:67:af:3e:90:82:1a:c4:60:54:2b:f6:c8:
         f9:bf:aa:ef:6f:8e:56:96:53:99:ac:87:f5:3e:c0:64:c9:d7:
         b0:8b:88:77
-----BEGIN CERTIFICATE-----
MIIEDzCCAvegAwIBAgIEEAAA1DANBgkqhkiG9w0BAQsFADBEMQswCQYDVQQGEwJE
RTEPMA0GA1UECAwGSGVzc2VuMRQwEgYDVQQKDAtwcml2YWN5aWRlYTEOMAwGA1UE
AwwFQ0EwMDEwHhcNMjAwOTAzMjA1OTU5WhcNMjEwOTAzMjA1OTU5WjA9MSUwIwYD
VQQDDBxzZWxmc2VydmljZSxDTj11c2VyLE89cmVhbG0xMRQwEgYJKoZIhvcNAQkB
FgVtZWluZTCCASIwDQYJKoZIhvcNAQEBBQADggEPADCCAQoCggEBAM881DMOEsTm
2s22VqEcJrsmHIpKc6hYirYes4uZ0h0HwpKJecBp2MjfKGGYHrP+riu9eKn3bkfc
o6AWjIUCwU6S/XJu8MgDKZu4AG7Ag5XINCA2nLPl5OZ2c6MarUCW4FNUAOx2eZrG
DX62vSnsg/PLiaTLbAC6DMV4D/9puJT0BHBDP9ie16f7Xc51jtrnxAexnd5viEu2
TZrP+bz6n80ybfY6Cw0jQnjsl0K/Dk1gVuHTAvIZy4RXkOVwoaKDNYbi2oaf+YrE
ebNSKNrLuzTK09qRSs+NdqKya5v5lv0JKtoRI03wy9aysQ4SbJoZZZiHyuTuJM5E
rJCPnRvFKp0CAwEAAaOCAQ4wggEKMAsGA1UdDwQEAwIFoDAJBgNVHRMEAjAAMBEG
CWCGSAGG+EIBAQQEAwIGQDAzBglghkgBhvhCAQ0EJhYkT3BlblNTTCBHZW5lcmF0
ZWQgU2VydmVyIENlcnRpZmljYXRlMB0GA1UdDgQWBBRNB5Ct/x0N5xrd1i76ujTL
qh8kxjB0BgNVHSMEbTBrgBT0p8DMkUavZPOR8if4yLJviocyc6FIpEYwRDELMAkG
A1UEBhMCREUxDzANBgNVBAgMBkhlc3NlbjEUMBIGA1UECgwLcHJpdmFjeWlkZWEx
DjAMBgNVBAMMBUNBMDAxggkA+8jrrIPNEgcwEwYDVR0lBAwwCgYIKwYBBQUHAwEw
DQYJKoZIhvcNAQELBQADggEBAJGBi2fNp5cYEe60/reaEhzoQuPzQ/jPOviWDJoB
vIiMk531eipejeJnEC4rXObRnsxfUR5NbxXoAoKAvPYwtvqJJTaEyIb2HPV3pW/Z
bPmPQJS6IFo3o0BjuOWn8hLfiJUwf2QFo5ViaECTyLtWTv1JhhJOfYTQyj/Cj1hc
UR8LR4iX3c9BIYh5t+HU8qiR+oe+lUanOisH81RfbKVQUu22tTg8YlE2Qv0KzCj8
ZS6yGESAxpUKeYJ9eSQtsIgEwafsL0s/lNfO3sovL5ButhoXfu4pbWC0Cw8YqTnk
9GevPpCCGsRgVCv2yPm/qu9vjlaWU5msh/U+wGTJ17CLiHc=
-----END CERTIFICATE-----
