Certificate:
    Data:
        Version: 3 (0x2)
        Serial Number: 268435667 (0x100000d3)
        Signature Algorithm: sha256WithRSAEncryption
        Issuer: C=DE, ST=Hessen, O=privacyidea, CN=CA001
        Validity
            Not Before: Sep  3 20:58:34 2020 GMT
            Not After : Sep  3 20:58:34 2021 GMT
        Subject: OU=realm1, CN=cornelius/emailAddress=user@localhost.localdomain
        Subject Public Key Info:
            Public Key Algorithm: rsaEncryption
                RSA Public-Key: (2048 bit)
                Modulus:
                    00:a5:fd:06:0e:64:86:9b:53:4f:ef:1f:e8:0a:d8:
                    2a:e5:34:3b:8e:71:9d:f8:fc:7b:bd:5b:5f:47:9f:
                    f2:5a:63:66:01:32:44:f2:4f:79:32:0a:8c:e2:82:
                    90:0f:48:ed:87:b2:b3:80:76:74:73:b2:f7:39:8e:
                    6c:b2:8d:15:cd:d2:ed:54:4f:09:70:9d:3f:55:07:
                    7a:7c:8a:d6:12:52:9e:b9:2f:6c:56:a3:88:e0:f9:
                    b6:74:83:f2:a1:8a:cb:75:9e:ef:df:cd:2c:94:9d:
                    19:7b:17:02:53:92:84:85:ae:6b:71:4b:34:51:28:
                    f9:0f:1b:2b:ff:aa:71:bf:ee:8a:ca:b9:3f:73:3a:
                    27:4d:54:ab:ae:d7:66:fb:4d:c8:38:6e:7e:91:60:
                    a4:cf:fb:c8:f3:cb:3d:ce:9f:d0:cc:2f:81:a3:e1:
                    a8:27:06:d4:06:74:02:a6:4c:32:bd:f8:c2:d0:65:
                    a8:06:74:64:d8:12:ff:fe:8b:35:05:8f:23:ef:21:
                    3e:72:24:10:7a:09:c1:00:46:97:d0:3b:48:ff:82:
                    4f:f4:8d:26:b8:48:02:36:5f:0e:9e:f1:11:f2:19:
                    9a:c5:ee:f0:dd:21:3c:ec:a4:8d:e2:95:c0:bd:ea:
                    4f:90:48:46:41:78:69:5c:4e:d8:ce:f4:5d:0f:36:
                    ad:69
                Exponent: 65537 (0x10001)
        X509v3 extensions:
            X509v3 Key Usage: 
                Digital Signature, Key Encipherment
            X509v3 Basic Constraints: 
                CA:FALSE
            Netscape Cert Type: 
                SSL Server
            Netscape Comment: 
                OpenSSL Generated Server Certificate
            X509v3 Subject Key Identifier: 
                FA:94:FB:02:44:BB:C2:0C:C4:F5:AC:9E:C7:46:AE:4C:88:54:56:81
            X509v3 Authority Key Identifier: 
                keyid:F4:A7:C0:CC:91:46:AF:64:F3:91:F2:27:F8:C8:B2:6F:8A:87:32:73
                DirName:/C=DE/ST=Hessen/O=privacyidea/CN=CA001
                serial:FB:C8:EB:AC:83:CD:12:07

            X509v3 Extended Key Usage: 
                TLS Web Server Authentication
    Signature Algorithm: sha256WithRSAEncryption
         ae:42:46:e0:a5:03:94:76:22:95:55:2f:ae:79:26:93:78:23:
         b4:cb:d7:d2:e3:4c:74:cd:e6:10:5b:f8:be:73:5e:b9:13:20:
         b0:cf:98:aa:54:8b:a6:bc:74:c9:6e:98:0b:38:aa:f1:82:5d:
         61:d1:d2:dc:29:ae:9e:f8:f0:37:d6:eb:aa:32:79:80:10:7d:
         0f:e8:fd:23:8b:ed:70:60:26:48:72:d6:7b:42:ce:95:f2:aa:
         3f:47:00:da:e2:3a:98:8a:0c:37:80:a2:d3:66:be:46:fe:9e:
         1c:58:79:46:33:7b:f1:03:d3:67:10:18:73:20:a5:92:a5:88:
         b4:d4:ce:1b:6d:ec:b3:cf:6f:f1:b0:ef:6f:c1:64:73:a8:98:
         f2:90:cd:ce:9b:32:a6:c0:2f:62:7b:08:ac:c5:84:c5:0c:98:
         f5:51:07:85:83:3e:dd:a0:d6:ea:31:10:ee:ce:7b:ed:ea:31:
         05:fd:ed:81:e4:8c:04:08:7a:dd:41:64:fc:aa:14:2b:93:2b:
         d0:1c:29:19:bb:88:9d:5d:9a:3a:94:65:aa:23:cb:65:1a:ef:
         af:c9:e7:79:b6:0c:64:31:6a:22:2d:ac:9c:46:3d:e8:c7:d2:
         45:08:f6:55:9f:eb:3b:74:20:37:54:0e:a9:45:2a:fa:67:c2:
         21:f2:6e:36
-----BEGIN CERTIFICATE-----
MIIEIjCCAwqgAwIBAgIEEAAA0zANBgkqhkiG9w0BAQsFADBEMQswCQYDVQQGEwJE
RTEPMA0GA1UECAwGSGVzc2VuMRQwEgYDVQQKDAtwcml2YWN5aWRlYTEOMAwGA1UE
AwwFQ0EwMDEwHhcNMjAwOTAzMjA1ODM0WhcNMjEwOTAzMjA1ODM0WjBQMQ8wDQYD
VQQLDAZyZWFsbTExEjAQBgNVBAMMCWNvcm5lbGl1czEpMCcGCSqGSIb3DQEJARYa
dXNlckBsb2NhbGhvc3QubG9jYWxkb21haW4wggEiMA0GCSqGSIb3DQEBAQUAA4IB
DwAwggEKAoIBAQCl/QYOZIabU0/vH+gK2CrlNDuOcZ34/Hu9W19Hn/JaY2YBMkTy
T3kyCozigpAPSO2HsrOAdnRzsvc5jmyyjRXN0u1UTwlwnT9VB3p8itYSUp65L2xW
o4jg+bZ0g/Khist1nu/fzSyUnRl7FwJTkoSFrmtxSzRRKPkPGyv/qnG/7orKuT9z
OidNVKuu12b7Tcg4bn6RYKTP+8jzyz3On9DML4Gj4agnBtQGdAKmTDK9+MLQZagG
dGTYEv/+izUFjyPvIT5yJBB6CcEARpfQO0j/gk/0jSa4SAI2Xw6e8RHyGZrF7vDd
ITzspI3ilcC96k+QSEZBeGlcTtjO9F0PNq1pAgMBAAGjggEOMIIBCjALBgNVHQ8E
BAMCBaAwCQYDVR0TBAIwADARBglghkgBhvhCAQEEBAMCBkAwMwYJYIZIAYb4QgEN
BCYWJE9wZW5TU0wgR2VuZXJhdGVkIFNlcnZlciBDZXJ0aWZpY2F0ZTAdBgNVHQ4E
FgQU+pT7AkS7wgzE9ayex0auTIhUVoEwdAYDVR0jBG0wa4AU9KfAzJFGr2TzkfIn
+Miyb4qHMnOhSKRGMEQxCzAJBgNVBAYTAkRFMQ8wDQYDVQQIDAZIZXNzZW4xFDAS
BgNVBAoMC3ByaXZhY3lpZGVhMQ4wDAYDVQQDDAVDQTAwMYIJAPvI66yDzRIHMBMG
A1UdJQQMMAoGCCsGAQUFBwMBMA0GCSqGSIb3DQEBCwUAA4IBAQCuQkbgpQOUdiKV
VS+ueSaTeCO0y9fS40x0zeYQW/i+c165EyCwz5iqVIumvHTJbpgLOKrxgl1h0dLc
Ka6e+PA31uuqMnmAEH0P6P0ji+1wYCZIctZ7Qs6V8qo/RwDa4jqYigw3gKLTZr5G
/p4cWHlGM3vxA9NnEBhzIKWSpYi01M4bbeyzz2/xsO9vwWRzqJjykM3OmzKmwC9i
ewisxYTFDJj1UQeFgz7doNbqMRDuznvt6jEF/e2B5IwECHrdQWT8qhQrkyvQHCkZ
u4idXZo6lGWqI8tlGu+vyed5tgxkMWoiLaycRj3ox9JFCPZVn+s7dCA3VA6pRSr6
Z8Ih8m42
-----END CERTIFICATE-----
