Certificate:
    Data:
        Version: 3 (0x2)
        Serial Number: 268435666 (0x100000d2)
        Signature Algorithm: sha256WithRSAEncryption
        Issuer: C=DE, ST=Hessen, O=privacyidea, CN=CA001
        Validity
            Not Before: Sep  3 20:58:33 2020 GMT
            Not After : Sep  3 20:58:33 2021 GMT
        Subject: C=DE, ST=Hessen, O=privacyidea, CN=requester.localdomain
        Subject Public Key Info:
            Public Key Algorithm: rsaEncryption
                RSA Public-Key: (2048 bit)
                Modulus:
                    00:cd:be:14:4f:fa:ce:01:3f:42:22:1b:1d:9c:af:
                    dd:92:d2:7f:db:6c:b7:3e:39:43:43:6b:13:03:f1:
                    05:f4:07:74:bc:76:69:28:0b:af:19:8e:d7:fc:e3:
                    cd:c6:58:f2:ca:7f:08:6d:53:fc:07:02:44:24:c6:
                    b4:34:4c:8c:04:fe:33:0e:40:e2:20:ba:02:73:5a:
                    f7:f5:4f:63:6e:cc:c6:b6:df:54:1d:37:39:7d:51:
                    36:26:5f:bd:dc:3f:a8:8b:6b:a2:ae:b6:9d:d6:21:
                    e7:df:41:b8:7a:28:2a:68:48:ca:a8:2d:ed:e1:e9:
                    46:5e:5a:72:6d:b4:84:38:87:91:fd:94:11:0b:28:
                    84:c6:c2:2f:2a:fb:01:f9:36:7a:09:75:d1:33:88:
                    3c:73:41:5b:c8:bf:94:89:70:a1:f0:c0:b9:2e:50:
                    53:1e:b1:17:64:69:f4:2d:81:e0:a9:0d:0e:32:e9:
                    ba:55:8a:85:f1:1b:6f:49:79:b4:7f:88:c3:0d:3e:
                    54:88:9b:3d:1f:38:8c:04:f3:ee:6a:63:2b:f5:c6:
                    db:b4:83:aa:c4:78:41:3a:7d:4b:e1:c8:3e:71:ca:
                    1b:61:59:ea:c6:c4:ca:32:5e:c9:e9:bf:12:29:e6:
                    c6:c3:63:fe:a0:55:da:7a:f1:60:98:4d:26:ed:fa:
                    70:2d
                Exponent: 65537 (0x10001)
        X509v3 extensions:
            X509v3 Key Usage: 
                Digital Signature, Key Encipherment
            X509v3 Basic Constraints: 
                CA:FALSE
            Netscape Cert Type: 
                SSL Server
            Netscape Comment: 
                OpenSSL Generated Server Certificate
            X509v3 Subject Key Identifier: 
                53:3F:ED:5D:09:07:B3:65:7B:AB:45:C9:24:5B:09:77:80:0A:96:ED
            X509v3 Authority Key Identifier: 
                keyid:F4:A7:C0:CC:91:46:AF:64:F3:91:F2:27:F8:C8:B2:6F:8A:87:32:73
                DirName:/C=DE/ST=Hessen/O=privacyidea/CN=CA001
                serial:FB:C8:EB:AC:83:CD:12:07

            X509v3 Extended Key Usage: 
                TLS Web Server Authentication
    Signature Algorithm: sha256WithRSAEncryption
         54:10:62:a5:ec:ff:c4:4c:de:46:07:27:ae:62:0f:ab:c3:ae:
         fd:50:32:c8:eb:29:5f:d8:23:ae:29:51:86:2e:6e:88:a2:26:
         e1:6e:30:1e:b0:b9:9e:63:5a:46:6f:0d:ec:c1:90:27:01:97:
         78:7e:e8:99:0e:26:e9:58:84:3f:69:04:05:b0:50:6e:c3:b5:
         b0:6d:f1:5d:57:73:6d:e5:f5:b3:13:2f:4c:da:86:7e:48:9e:
         d6:32:43:48:89:f9:e0:9d:f6:07:34:0f:3d:54:f0:b9:db:b8:
         ba:93:22:59:eb:36:d6:8f:ea:6d:fd:f4:97:a9:25:1c:eb:e7:
         bc:cd:f7:e5:a8:08:85:66:14:fa:07:df:97:1e:b4:8d:0b:a6:
         bf:98:40:6f:81:d0:8f:9e:a8:54:c4:8d:76:96:d5:0c:c5:80:
         65:9f:05:66:bb:ff:3a:2e:eb:5c:79:e2:88:29:2c:29:7f:16:
         0b:96:37:89:ba:f2:82:4d:30:f4:45:89:3d:fe:61:15:f5:49:
         bd:d2:c5:e6:1c:6b:19:2b:f4:57:f9:5d:6f:9b:68:38:03:2b:
         44:6c:93:fd:89:90:15:b1:a6:0e:71:aa:ed:58:1c:a0:1f:05:
         85:72:16:02:0f:08:66:39:01:44:a5:db:e0:5e:0c:57:2e:d1:
         0d:aa:c0:43
-----BEGIN CERTIFICATE-----
MIIEJjCCAw6gAwIBAgIEEAAA0jANBgkqhkiG9w0BAQsFADBEMQswCQYDVQQGEwJE
RTEPMA0GA1UECAwGSGVzc2VuMRQwEgYDVQQKDAtwcml2YWN5aWRlYTEOMAwGA1UE
AwwFQ0EwMDEwHhcNMjAwOTAzMjA1ODMzWhcNMjEwOTAzMjA1ODMzWjBUMQswCQYD
VQQGEwJERTEPMA0GA1UECAwGSGVzc2VuMRQwEgYDVQQKDAtwcml2YWN5aWRlYTEe
MBwGA1UEAwwVcmVxdWVzdGVyLmxvY2FsZG9tYWluMIIBIjANBgkqhkiG9w0BAQEF
AAOCAQ8AMIIBCgKCAQEAzb4UT/rOAT9CIhsdnK/dktJ/22y3PjlDQ2sTA/EF9Ad0
vHZpKAuvGY7X/OPNxljyyn8IbVP8BwJEJMa0NEyMBP4zDkDiILoCc1r39U9jbszG
tt9UHTc5fVE2Jl+93D+oi2uirrad1iHn30G4eigqaEjKqC3t4elGXlpybbSEOIeR
/ZQRCyiExsIvKvsB+TZ6CXXRM4g8c0FbyL+UiXCh8MC5LlBTHrEXZGn0LYHgqQ0O
Mum6VYqF8RtvSXm0f4jDDT5UiJs9HziMBPPuamMr9cbbtIOqxHhBOn1L4cg+ccob
YVnqxsTKMl7J6b8SKebGw2P+oFXaevFgmE0m7fpwLQIDAQABo4IBDjCCAQowCwYD
VR0PBAQDAgWgMAkGA1UdEwQCMAAwEQYJYIZIAYb4QgEBBAQDAgZAMDMGCWCGSAGG
+EIBDQQmFiRPcGVuU1NMIEdlbmVyYXRlZCBTZXJ2ZXIgQ2VydGlmaWNhdGUwHQYD
VR0OBBYEFFM/7V0JB7Nle6tFySRbCXeACpbtMHQGA1UdIwRtMGuAFPSnwMyRRq9k
85HyJ/jIsm+KhzJzoUikRjBEMQswCQYDVQQGEwJERTEPMA0GA1UECAwGSGVzc2Vu
MRQwEgYDVQQKDAtwcml2YWN5aWRlYTEOMAwGA1UEAwwFQ0EwMDGCCQD7yOusg80S
BzATBgNVHSUEDDAKBggrBgEFBQcDATANBgkqhkiG9w0BAQsFAAOCAQEAVBBipez/
xEzeRgcnrmIPq8Ou/VAyyOspX9gjrilRhi5uiKIm4W4wHrC5nmNaRm8N7MGQJwGX
eH7omQ4m6ViEP2kEBbBQbsO1sG3xXVdzbeX1sxMvTNqGfkie1jJDSIn54J32BzQP
PVTwudu4upMiWes21o/qbf30l6klHOvnvM335agIhWYU+gfflx60jQumv5hAb4HQ
j56oVMSNdpbVDMWAZZ8FZrv/Oi7rXHniiCksKX8WC5Y3ibrygk0w9EWJPf5hFfVJ
vdLF5hxrGSv0V/ldb5toOAMrRGyT/YmQFbGmDnGq7VgcoB8FhXIWAg8IZjkBRKXb
4F4MVy7RDarAQw==
-----END CERTIFICATE-----
